target datalayout = "e-m:e-p270:32:32-p271:32:32-p272:64:64-i64:64-i128:128-f80:128-n8:16:32:64-S128"
target triple = "x86_64-pc-linux-gnu"

%struct.UBiDiProps = type { ptr, ptr, ptr, ptr, ptr, %struct.UTrie2, [4 x i8] }
%struct.UTrie2 = type { ptr, ptr, ptr, i32, i32, i16, i16, i32, i32, i32, i32, ptr, i32, i8, i8, i16, ptr }

; Function Attrs: mustprogress nounwind uwtable
define internal noundef i32 @_ZL9getMirrorit(i32 noundef %0, i16 noundef zeroext %1) #4 {
  %3 = alloca i32, align 4
  %4 = alloca i32, align 4
  %5 = alloca i16, align 2
  %6 = alloca i32, align 4
  %7 = alloca i32, align 4
  %8 = alloca ptr, align 8
  %9 = alloca i32, align 4
  %10 = alloca i32, align 4
  %11 = alloca i32, align 4
  %12 = alloca i32, align 4
  store i32 %0, ptr %4, align 4, !tbaa !21
  store i16 %1, ptr %5, align 2, !tbaa !39
  call void @llvm.lifetime.start.p0(i64 4, ptr %6) #5
  %13 = load i16, ptr %5, align 2, !tbaa !39
  %14 = sext i16 %13 to i32
  %15 = ashr i32 %14, 13
  store i32 %15, ptr %6, align 4, !tbaa !21
  %16 = load i32, ptr %6, align 4, !tbaa !21
  %17 = icmp ne i32 %16, -4
  br i1 %17, label %18, label %22

18:                                               ; preds = %2
  %19 = load i32, ptr %4, align 4, !tbaa !21
  %20 = load i32, ptr %6, align 4, !tbaa !21
  %21 = add nsw i32 %19, %20
  store i32 %21, ptr %3, align 4
  store i32 1, ptr %7, align 4
  br label %63

22:                                               ; preds = %2
  call void @llvm.lifetime.start.p0(i64 8, ptr %8) #5
  call void @llvm.lifetime.start.p0(i64 4, ptr %9) #5
  call void @llvm.lifetime.start.p0(i64 4, ptr %10) #5
  call void @llvm.lifetime.start.p0(i64 4, ptr %11) #5
  call void @llvm.lifetime.start.p0(i64 4, ptr %12) #5
  %23 = load ptr, ptr getelementptr inbounds nuw (%struct.UBiDiProps, ptr @_ZL21ubidi_props_singleton, i32 0, i32 2), align 8, !tbaa !22
  store ptr %23, ptr %8, align 8, !tbaa !40
  %24 = load ptr, ptr getelementptr inbounds nuw (%struct.UBiDiProps, ptr @_ZL21ubidi_props_singleton, i32 0, i32 1), align 8, !tbaa !11
  %25 = getelementptr inbounds nuw i32, ptr %24, i64 3
  %26 = load i32, ptr %25, align 4, !tbaa !21
  store i32 %26, ptr %11, align 4, !tbaa !21
  store i32 0, ptr %10, align 4, !tbaa !21
  br label %27

27:                                               ; preds = %57, %22
  %28 = load i32, ptr %10, align 4, !tbaa !21
  %29 = load i32, ptr %11, align 4, !tbaa !21
  %30 = icmp slt i32 %28, %29
  br i1 %30, label %31, label %60

31:                                               ; preds = %27
  %32 = load ptr, ptr %8, align 8, !tbaa !40
  %33 = load i32, ptr %10, align 4, !tbaa !21
  %34 = sext i32 %33 to i64
  %35 = getelementptr inbounds i32, ptr %32, i64 %34
  %36 = load i32, ptr %35, align 4, !tbaa !21
  store i32 %36, ptr %9, align 4, !tbaa !21
  %37 = load i32, ptr %9, align 4, !tbaa !21
  %38 = and i32 %37, 2097151
  store i32 %38, ptr %12, align 4, !tbaa !21
  %39 = load i32, ptr %4, align 4, !tbaa !21
  %40 = load i32, ptr %12, align 4, !tbaa !21
  %41 = icmp eq i32 %39, %40
  br i1 %41, label %42, label %50

42:                                               ; preds = %31
  %43 = load ptr, ptr %8, align 8, !tbaa !40
  %44 = load i32, ptr %9, align 4, !tbaa !21
  %45 = lshr i32 %44, 21
  %46 = zext i32 %45 to i64
  %47 = getelementptr inbounds nuw i32, ptr %43, i64 %46
  %48 = load i32, ptr %47, align 4, !tbaa !21
  %49 = and i32 %48, 2097151
  store i32 %49, ptr %3, align 4
  store i32 1, ptr %7, align 4
  br label %62

50:                                               ; preds = %31
  %51 = load i32, ptr %4, align 4, !tbaa !21
  %52 = load i32, ptr %12, align 4, !tbaa !21
  %53 = icmp slt i32 %51, %52
  br i1 %53, label %54, label %55

54:                                               ; preds = %50
  br label %60

55:                                               ; preds = %50
  br label %56

56:                                               ; preds = %55
  br label %57

57:                                               ; preds = %56
  %58 = load i32, ptr %10, align 4, !tbaa !21
  %59 = add nsw i32 %58, 1
  store i32 %59, ptr %10, align 4, !tbaa !21
  br label %27, !llvm.loop !41

60:                                               ; preds = %54, %27
  %61 = load i32, ptr %4, align 4, !tbaa !21
  store i32 %61, ptr %3, align 4
  store i32 1, ptr %7, align 4
  br label %62

62:                                               ; preds = %60, %42
  call void @llvm.lifetime.end.p0(i64 4, ptr %12) #5
  call void @llvm.lifetime.end.p0(i64 4, ptr %11) #5
  call void @llvm.lifetime.end.p0(i64 4, ptr %10) #5
  call void @llvm.lifetime.end.p0(i64 4, ptr %9) #5
  call void @llvm.lifetime.end.p0(i64 8, ptr %8) #5
  br label %63

63:                                               ; preds = %62, %18
  call void @llvm.lifetime.end.p0(i64 4, ptr %6) #5
  %64 = load i32, ptr %3, align 4
  ret i32 %64
}

; Function Attrs: mustprogress uwtable
define i32 @ubidi_getPairedBracket_77(i32 noundef %0) #0 {
  %2 = alloca i32, align 4
  %3 = alloca i32, align 4
  %4 = alloca i16, align 2
  %5 = alloca i32, align 4
  store i32 %0, ptr %3, align 4, !tbaa !21
  call void @llvm.lifetime.start.p0(i64 2, ptr %4) #5
  %6 = load ptr, ptr getelementptr inbounds nuw (%struct.UBiDiProps, ptr @_ZL21ubidi_props_singleton, i32 0, i32 5), align 8, !tbaa !38
  %7 = load i32, ptr %3, align 4, !tbaa !21
  %8 = icmp ult i32 %7, 55296
  br i1 %8, label %9, label %22

9:                                                ; preds = %1
  %10 = load ptr, ptr getelementptr inbounds nuw (%struct.UBiDiProps, ptr @_ZL21ubidi_props_singleton, i32 0, i32 5), align 8, !tbaa !38
  %11 = load i32, ptr %3, align 4, !tbaa !21
  %12 = ashr i32 %11, 5
  %13 = add nsw i32 0, %12
  %14 = sext i32 %13 to i64
  %15 = getelementptr inbounds i16, ptr %10, i64 %14
  %16 = load i16, ptr %15, align 2, !tbaa !39
  %17 = zext i16 %16 to i32
  %18 = shl i32 %17, 2
  %19 = load i32, ptr %3, align 4, !tbaa !21
  %20 = and i32 %19, 31
  %21 = add nsw i32 %18, %20
  br label %77

22:                                               ; preds = %1
  %23 = load i32, ptr %3, align 4, !tbaa !21
  %24 = icmp ule i32 %23, 65535
  br i1 %24, label %25, label %41

25:                                               ; preds = %22
  %26 = load ptr, ptr getelementptr inbounds nuw (%struct.UBiDiProps, ptr @_ZL21ubidi_props_singleton, i32 0, i32 5), align 8, !tbaa !38
  %27 = load i32, ptr %3, align 4, !tbaa !21
  %28 = icmp sle i32 %27, 56319
  %29 = select i1 %28, i32 320, i32 0
  %30 = load i32, ptr %3, align 4, !tbaa !21
  %31 = ashr i32 %30, 5
  %32 = add nsw i32 %29, %31
  %33 = sext i32 %32 to i64
  %34 = getelementptr inbounds i16, ptr %26, i64 %33
  %35 = load i16, ptr %34, align 2, !tbaa !39
  %36 = zext i16 %35 to i32
  %37 = shl i32 %36, 2
  %38 = load i32, ptr %3, align 4, !tbaa !21
  %39 = and i32 %38, 31
  %40 = add nsw i32 %37, %39
  br label %75

41:                                               ; preds = %22
  %42 = load i32, ptr %3, align 4, !tbaa !21
  %43 = icmp ugt i32 %42, 1114111
  br i1 %43, label %44, label %45

44:                                               ; preds = %41
  br label %73

45:                                               ; preds = %41
  %46 = load i32, ptr %3, align 4, !tbaa !21
  %47 = icmp sge i32 %46, 1114112
  br i1 %47, label %48, label %49

48:                                               ; preds = %45
  br label %71

49:                                               ; preds = %45
  %50 = load ptr, ptr getelementptr inbounds nuw (%struct.UBiDiProps, ptr @_ZL21ubidi_props_singleton, i32 0, i32 5), align 8, !tbaa !38
  %51 = load ptr, ptr getelementptr inbounds nuw (%struct.UBiDiProps, ptr @_ZL21ubidi_props_singleton, i32 0, i32 5), align 8, !tbaa !38
  %52 = load i32, ptr %3, align 4, !tbaa !21
  %53 = ashr i32 %52, 11
  %54 = add nsw i32 2080, %53
  %55 = sext i32 %54 to i64
  %56 = getelementptr inbounds i16, ptr %51, i64 %55
  %57 = load i16, ptr %56, align 2, !tbaa !39
  %58 = zext i16 %57 to i32
  %59 = load i32, ptr %3, align 4, !tbaa !21
  %60 = ashr i32 %59, 5
  %61 = and i32 %60, 63
  %62 = add nsw i32 %58, %61
  %63 = sext i32 %62 to i64
  %64 = getelementptr inbounds i16, ptr %50, i64 %63
  %65 = load i16, ptr %64, align 2, !tbaa !39
  %66 = zext i16 %65 to i32
  %67 = shl i32 %66, 2
  %68 = load i32, ptr %3, align 4, !tbaa !21
  %69 = and i32 %68, 31
  %70 = add nsw i32 %67, %69
  br label %71

71:                                               ; preds = %49, %48
  %72 = phi i32 [ 13232, %48 ], [ %70, %49 ]
  br label %73

73:                                               ; preds = %71, %44
  %74 = phi i32 [ 3796, %44 ], [ %72, %71 ]
  br label %75

75:                                               ; preds = %73, %25
  %76 = phi i32 [ %40, %25 ], [ %74, %73 ]
  br label %77

77:                                               ; preds = %75, %9
  %78 = phi i32 [ %21, %9 ], [ %76, %75 ]
  %79 = sext i32 %78 to i64
  %80 = getelementptr inbounds i16, ptr %6, i64 %79
  %81 = load i16, ptr %80, align 2, !tbaa !39
  store i16 %81, ptr %4, align 2, !tbaa !39
  %82 = load i16, ptr %4, align 2, !tbaa !39
  %83 = zext i16 %82 to i32
  %84 = and i32 %83, 768
  %85 = icmp eq i32 %84, 0
  br i1 %85, label %86, label %88

86:                                               ; preds = %77
  %87 = load i32, ptr %3, align 4, !tbaa !21
  store i32 %87, ptr %2, align 4
  store i32 1, ptr %5, align 4
  br label %92

88:                                               ; preds = %77
  %89 = load i32, ptr %3, align 4, !tbaa !21
  %90 = load i16, ptr %4, align 2, !tbaa !39
  %91 = call noundef i32 @_ZL9getMirrorit(i32 noundef %89, i16 noundef zeroext %90)
  store i32 %91, ptr %2, align 4
  store i32 1, ptr %5, align 4
  br label %92

92:                                               ; preds = %88, %86
  call void @llvm.lifetime.end.p0(i64 2, ptr %4) #5
  %93 = load i32, ptr %2, align 4
  ret i32 %93
}

; Function Attrs: mustprogress uwtable
define i32 @u_getBidiPairedBracket_77(i32 noundef %0) #0 {
  %2 = alloca i32, align 4
  store i32 %0, ptr %2, align 4, !tbaa !21
  %3 = load i32, ptr %2, align 4, !tbaa !21
  %4 = call i32 @ubidi_getPairedBracket_77(i32 noundef %3)
  ret i32 %4
}